target datalayout = "e-m:e-p270:32:32-p271:32:32-p272:64:64-i64:64-i128:128-f80:128-n8:16:32:64-S128"
target triple = "x86_64-pc-linux-gnu"

@_ZTISt13runtime_error = external constant ptr
@.str.61 = private unnamed_addr constant [45 x i8] c"SSL certificate and private key do not match\00", align 1

; Function Attrs: mustprogress uwtable
define void @_ZN5folly10SSLContext24loadCertKeyPairFromFilesEPKcS2_S2_S2_(ptr noundef nonnull align 8 dereferenceable(304) %0, ptr noundef %1, ptr noundef %2, ptr noundef %3, ptr noundef %4) unnamed_addr #2 align 2 personality ptr @__gxx_personality_v0 {
  %6 = alloca ptr, align 8
  %7 = alloca ptr, align 8
  %8 = alloca ptr, align 8
  %9 = alloca ptr, align 8
  %10 = alloca ptr, align 8
  %11 = alloca ptr, align 8
  %12 = alloca i32, align 4
  store ptr %0, ptr %6, align 8, !tbaa !7
  store ptr %1, ptr %7, align 8, !tbaa !91
  store ptr %2, ptr %8, align 8, !tbaa !91
  store ptr %3, ptr %9, align 8, !tbaa !91
  store ptr %4, ptr %10, align 8, !tbaa !91
  %13 = load ptr, ptr %6, align 8
  %14 = load ptr, ptr %7, align 8, !tbaa !91
  %15 = load ptr, ptr %9, align 8, !tbaa !91
  %16 = load ptr, ptr %13, align 8, !tbaa !14
  %17 = getelementptr inbounds ptr, ptr %16, i64 11
  %18 = load ptr, ptr %17, align 8
  call void %18(ptr noundef nonnull align 8 dereferenceable(304) %13, ptr noundef %14, ptr noundef %15)
  %19 = load ptr, ptr %8, align 8, !tbaa !91
  %20 = load ptr, ptr %10, align 8, !tbaa !91
  %21 = load ptr, ptr %13, align 8, !tbaa !14
  %22 = getelementptr inbounds ptr, ptr %21, i64 13
  %23 = load ptr, ptr %22, align 8
  call void %23(ptr noundef nonnull align 8 dereferenceable(304) %13, ptr noundef %19, ptr noundef %20)
  %24 = load ptr, ptr %13, align 8, !tbaa !14
  %25 = getelementptr inbounds ptr, ptr %24, i64 18
  %26 = load ptr, ptr %25, align 8
  %27 = call noundef zeroext i1 %26(ptr noundef nonnull align 8 dereferenceable(304) %13)
  br i1 %27, label %35, label %28

28:                                               ; preds = %5
  %29 = call ptr @__cxa_allocate_exception(i64 16) #26
  invoke void @_ZNSt13runtime_errorC1EPKc(ptr noundef nonnull align 8 dereferenceable(16) %29, ptr noundef @.str.61)
          to label %30 unwind label %31

30:                                               ; preds = %28
  call void @__cxa_throw(ptr %29, ptr @_ZTISt13runtime_error, ptr @_ZNSt13runtime_errorD1Ev) #28
  unreachable

31:                                               ; preds = %28
  %32 = landingpad { ptr, i32 }
          cleanup
  %33 = extractvalue { ptr, i32 } %32, 0
  store ptr %33, ptr %11, align 8
  %34 = extractvalue { ptr, i32 } %32, 1
  store i32 %34, ptr %12, align 4
  call void @__cxa_free_exception(ptr %29) #26
  br label %36

35:                                               ; preds = %5
  ret void

36:                                               ; preds = %31
  %37 = load ptr, ptr %11, align 8
  %38 = load i32, ptr %12, align 4
  %39 = insertvalue { ptr, i32 } poison, ptr %37, 0
  %40 = insertvalue { ptr, i32 } %39, i32 %38, 1
  resume { ptr, i32 } %40
}