; Function Attrs: mustprogress uwtable
define void @_ZN5folly10SSLContext24loadCertKeyPairFromFilesEPKcS2_S2_S2_(ptr noundef nonnull align 8 dereferenceable(304) %0, ptr noundef %1, ptr noundef %2, ptr noundef %3, ptr noundef %4) unnamed_addr #2 align 2 personality ptr @__gxx_personality_v0 {
  %6 = load ptr, ptr %0, align 8, !tbaa !7
  %7 = getelementptr inbounds nuw i8, ptr %6, i64 88
  %8 = load ptr, ptr %7, align 8
  tail call void %8(ptr noundef nonnull align 8 dereferenceable(304) %0, ptr noundef %1, ptr noundef %3)
  %9 = load ptr, ptr %0, align 8, !tbaa !7
  %10 = getelementptr inbounds nuw i8, ptr %9, i64 104
  %11 = load ptr, ptr %10, align 8
  tail call void %11(ptr noundef nonnull align 8 dereferenceable(304) %0, ptr noundef %2, ptr noundef %4)
  %12 = load ptr, ptr %0, align 8, !tbaa !7
  %13 = getelementptr inbounds nuw i8, ptr %12, i64 144
  %14 = load ptr, ptr %13, align 8
  %15 = tail call noundef zeroext i1 %14(ptr noundef nonnull align 8 dereferenceable(304) %0)
  br i1 %15, label %21, label %16

16:                                               ; preds = %5
  %17 = tail call ptr @__cxa_allocate_exception(i64 16) #29
  invoke void @_ZNSt13runtime_errorC1EPKc(ptr noundef nonnull align 8 dereferenceable(16) %17, ptr noundef nonnull @.str.61)
          to label %18 unwind label %19

18:                                               ; preds = %16
  tail call void @__cxa_throw(ptr nonnull %17, ptr nonnull @_ZTISt13runtime_error, ptr nonnull @_ZNSt13runtime_errorD1Ev) #32
  unreachable

19:                                               ; preds = %16
  %20 = landingpad { ptr, i32 }
          cleanup
  tail call void @__cxa_free_exception(ptr nonnull %17) #29
  resume { ptr, i32 } %20

21:                                               ; preds = %5
  ret void
}